; Function Attrs: mustprogress nounwind uwtable
define dso_local void @_ZN4node4quic8Endpoint6ListenERKNS0_7Session7OptionsE(ptr noundef nonnull align 8 dereferenceable(1520) %this, ptr noundef nonnull align 8 dereferenceable(768) %options) local_unnamed_addr #3 align 2 {
entry:
  %impl_.i.i = getelementptr inbounds i8, ptr %this, i64 440
  %0 = load ptr, ptr %impl_.i.i, align 8
  %cmp.i.not.i.i.not = icmp eq ptr %0, null
  br i1 %cmp.i.not.i.i.not, label %lor.lhs.false, label %if.end11

lor.lhs.false:                                    ; preds = %entry
  %ptr_.i.i = getelementptr inbounds i8, ptr %this, i64 128
  %1 = load ptr, ptr %ptr_.i.i, align 8
  %closing.i = getelementptr inbounds i8, ptr %1, i64 3
  %2 = load i8, ptr %closing.i, align 1
  %tobool.i.not = icmp eq i8 %2, 0
  br i1 %tobool.i.not, label %lor.lhs.false3, label %if.end11

lor.lhs.false3:                                   ; preds = %lor.lhs.false
  %listening = getelementptr inbounds i8, ptr %1, i64 2
  %3 = load i8, ptr %listening, align 2
  %cmp = icmp eq i8 %3, 1
  br i1 %cmp, label %if.end11, label %if.end

if.end:                                           ; preds = %lor.lhs.false3
  %server_options_ = getelementptr inbounds i8, ptr %this, i64 456
  %_M_engaged.i.i = getelementptr inbounds i8, ptr %this, i64 1224
  %4 = load i8, ptr %_M_engaged.i.i, align 8
  %5 = and i8 %4, 1
  %tobool.i.not.i = icmp eq i8 %5, 0
  br i1 %tobool.i.not.i, label %if.else.i, label %if.then.i

if.then.i:                                        ; preds = %if.end
  %call3.i = tail call noundef nonnull align 8 dereferenceable(768) ptr @_ZN4node4quic7Session7OptionsaSERKS2_(ptr noundef nonnull align 8 dereferenceable(768) %server_options_, ptr noundef nonnull align 8 dereferenceable(768) %options)
  br label %_ZNSt8optionalIN4node4quic7Session7OptionsEEaSIRKS3_EENSt9enable_ifIX7__and_vISt6__not_ISt7is_sameIS4_NSt9remove_cvINSt16remove_referenceIT_E4typeEE4typeEEES9_ISt6__and_IJSt9is_scalarIS3_ESA_IS3_NSt5decayISD_E4typeEEEEESt16is_constructibleIS3_JSD_EESt13is_assignableIRS3_SD_EEERS4_E4typeEOSD_.exit

if.else.i:                                        ; preds = %if.end
  tail call void @_ZN4node4quic7Session7OptionsC2ERKS2_(ptr noundef nonnull align 8 dereferenceable(768) %server_options_, ptr noundef nonnull align 8 dereferenceable(768) %options)
  store i8 1, ptr %_M_engaged.i.i, align 8
  br label %_ZNSt8optionalIN4node4quic7Session7OptionsEEaSIRKS3_EENSt9enable_ifIX7__and_vISt6__not_ISt7is_sameIS4_NSt9remove_cvINSt16remove_referenceIT_E4typeEE4typeEEES9_ISt6__and_IJSt9is_scalarIS3_ESA_IS3_NSt5decayISD_E4typeEEEEESt16is_constructibleIS3_JSD_EESt13is_assignableIRS3_SD_EEERS4_E4typeEOSD_.exit

_ZNSt8optionalIN4node4quic7Session7OptionsEEaSIRKS3_EENSt9enable_ifIX7__and_vISt6__not_ISt7is_sameIS4_NSt9remove_cvINSt16remove_referenceIT_E4typeEE4typeEEES9_ISt6__and_IJSt9is_scalarIS3_ESA_IS3_NSt5decayISD_E4typeEEEEESt16is_constructibleIS3_JSD_EESt13is_assignableIRS3_SD_EEERS4_E4typeEOSD_.exit: ; preds = %if.then.i, %if.else.i
  %call6 = tail call noundef zeroext i1 @_ZN4node4quic8Endpoint5StartEv(ptr noundef nonnull align 8 dereferenceable(1520) %this)
  br i1 %call6, label %if.then7, label %if.end11

if.then7:                                         ; preds = %_ZNSt8optionalIN4node4quic7Session7OptionsEEaSIRKS3_EENSt9enable_ifIX7__and_vISt6__not_ISt7is_sameIS4_NSt9remove_cvINSt16remove_referenceIT_E4typeEE4typeEEES9_ISt6__and_IJSt9is_scalarIS3_ESA_IS3_NSt5decayISD_E4typeEEEEESt16is_constructibleIS3_JSD_EESt13is_assignableIRS3_SD_EEERS4_E4typeEOSD_.exit
  %6 = load ptr, ptr %ptr_.i.i, align 8
  %listening10 = getelementptr inbounds i8, ptr %6, i64 2
  store i8 1, ptr %listening10, align 2
  br label %if.end11

if.end11:                                         ; preds = %entry, %lor.lhs.false, %lor.lhs.false3, %if.then7, %_ZNSt8optionalIN4node4quic7Session7OptionsEEaSIRKS3_EENSt9enable_ifIX7__and_vISt6__not_ISt7is_sameIS4_NSt9remove_cvINSt16remove_referenceIT_E4typeEE4typeEEES9_ISt6__and_IJSt9is_scalarIS3_ESA_IS3_NSt5decayISD_E4typeEEEEESt16is_constructibleIS3_JSD_EESt13is_assignableIRS3_SD_EEERS4_E4typeEOSD_.exit
  ret void
}